target datalayout = "e-m:e-p270:32:32-p271:32:32-p272:64:64-i64:64-i128:128-f80:128-n8:16:32:64-S128"
target triple = "x86_64-pc-linux-gnu"

%"class.icu_77::BytesTrie" = type <{ ptr, ptr, ptr, i32, [4 x i8] }>
%"class.icu_77::StringPiece" = type <{ ptr, i32, [4 x i8] }>

; Function Attrs: inlinehint mustprogress uwtable
define linkonce_odr noundef i32 @_ZNK6icu_779BytesTrie8getValueEv(ptr noundef nonnull align 8 dereferenceable(28) %0) #3 comdat align 2 {
  %2 = alloca ptr, align 8
  %3 = alloca ptr, align 8
  %4 = alloca i32, align 4
  store ptr %0, ptr %2, align 8, !tbaa !53
  %5 = load ptr, ptr %2, align 8
  call void @llvm.lifetime.start.p0(i64 8, ptr %3) #14
  %6 = getelementptr inbounds nuw %"class.icu_77::BytesTrie", ptr %5, i32 0, i32 2
  %7 = load ptr, ptr %6, align 8, !tbaa !58
  store ptr %7, ptr %3, align 8, !tbaa !17
  call void @llvm.lifetime.start.p0(i64 4, ptr %4) #14
  %8 = load ptr, ptr %3, align 8, !tbaa !17
  %9 = getelementptr inbounds nuw i8, ptr %8, i32 1
  store ptr %9, ptr %3, align 8, !tbaa !17
  %10 = load i8, ptr %8, align 1, !tbaa !36
  %11 = zext i8 %10 to i32
  store i32 %11, ptr %4, align 4, !tbaa !14
  %12 = load ptr, ptr %3, align 8, !tbaa !17
  %13 = load i32, ptr %4, align 4, !tbaa !14
  %14 = ashr i32 %13, 1
  %15 = call noundef i32 @_ZN6icu_779BytesTrie9readValueEPKhi(ptr noundef %12, i32 noundef %14)
  call void @llvm.lifetime.end.p0(i64 4, ptr %4) #14
  call void @llvm.lifetime.end.p0(i64 8, ptr %3) #14
  ret i32 %15
}

; Function Attrs: mustprogress nounwind uwtable
define linkonce_odr noundef i32 @_ZNK6icu_7711StringPiece6lengthEv(ptr noundef nonnull align 8 dereferenceable(12) %0) #0 comdat align 2 {
  %2 = alloca ptr, align 8
  store ptr %0, ptr %2, align 8, !tbaa !146
  %3 = load ptr, ptr %2, align 8
  %4 = getelementptr inbounds nuw %"class.icu_77::StringPiece", ptr %3, i32 0, i32 1
  %5 = load i32, ptr %4, align 8, !tbaa !148
  ret i32 %5
}

; Function Attrs: mustprogress nounwind uwtable
define linkonce_odr noundef ptr @_ZNK6icu_7711StringPiece4dataEv(ptr noundef nonnull align 8 dereferenceable(12) %0) #0 comdat align 2 {
  %2 = alloca ptr, align 8
  store ptr %0, ptr %2, align 8, !tbaa !146
  %3 = load ptr, ptr %2, align 8
  %4 = getelementptr inbounds nuw %"class.icu_77::StringPiece", ptr %3, i32 0, i32 0
  %5 = load ptr, ptr %4, align 8, !tbaa !150
  ret ptr %5
}

; Function Attrs: mustprogress nounwind uwtable
define linkonce_odr noundef nonnull align 8 dereferenceable(28) ptr @_ZN6icu_779BytesTrie5resetEv(ptr noundef nonnull align 8 dereferenceable(28) %0) #0 comdat align 2 {
  %2 = alloca ptr, align 8
  store ptr %0, ptr %2, align 8, !tbaa !53
  %3 = load ptr, ptr %2, align 8
  %4 = getelementptr inbounds nuw %"class.icu_77::BytesTrie", ptr %3, i32 0, i32 1
  %5 = load ptr, ptr %4, align 8, !tbaa !57
  %6 = getelementptr inbounds nuw %"class.icu_77::BytesTrie", ptr %3, i32 0, i32 2
  store ptr %5, ptr %6, align 8, !tbaa !58
  %7 = getelementptr inbounds nuw %"class.icu_77::BytesTrie", ptr %3, i32 0, i32 3
  store i32 -1, ptr %7, align 8, !tbaa !59
  ret ptr %3
}

; Function Attrs: mustprogress uwtable
define internal noundef i32 @_ZN6icu_7712_GLOBAL__N_120getUnitCategoryIndexERNS_9BytesTrieENS_11StringPieceER10UErrorCode(ptr noundef nonnull align 8 dereferenceable(28) %0, ptr %1, i32 %2, ptr noundef nonnull align 4 dereferenceable(4) %3) #1 {
  %5 = alloca i32, align 4
  %6 = alloca %"class.icu_77::StringPiece", align 8
  %7 = alloca ptr, align 8
  %8 = alloca ptr, align 8
  %9 = alloca i32, align 4
  %10 = alloca i32, align 4
  %11 = getelementptr inbounds nuw { ptr, i32 }, ptr %6, i32 0, i32 0
  store ptr %1, ptr %11, align 8
  %12 = getelementptr inbounds nuw { ptr, i32 }, ptr %6, i32 0, i32 1
  store i32 %2, ptr %12, align 8
  store ptr %0, ptr %7, align 8, !tbaa !53
  store ptr %3, ptr %8, align 8, !tbaa !22
  call void @llvm.lifetime.start.p0(i64 4, ptr %9) #14
  %13 = load ptr, ptr %7, align 8, !tbaa !53
  %14 = call noundef nonnull align 8 dereferenceable(28) ptr @_ZN6icu_779BytesTrie5resetEv(ptr noundef nonnull align 8 dereferenceable(28) %13)
  %15 = call noundef ptr @_ZNK6icu_7711StringPiece4dataEv(ptr noundef nonnull align 8 dereferenceable(12) %6)
  %16 = call noundef i32 @_ZNK6icu_7711StringPiece6lengthEv(ptr noundef nonnull align 8 dereferenceable(12) %6)
  %17 = call noundef i32 @_ZN6icu_779BytesTrie4nextEPKci(ptr noundef nonnull align 8 dereferenceable(28) %14, ptr noundef %15, i32 noundef %16)
  store i32 %17, ptr %9, align 4, !tbaa !76
  %18 = load i32, ptr %9, align 4, !tbaa !76
  %19 = icmp sge i32 %18, 2
  br i1 %19, label %22, label %20

20:                                               ; preds = %4
  %21 = load ptr, ptr %8, align 8, !tbaa !22
  store i32 16, ptr %21, align 4, !tbaa !15
  store i32 -1, ptr %5, align 4
  store i32 1, ptr %10, align 4
  br label %25

22:                                               ; preds = %4
  %23 = load ptr, ptr %7, align 8, !tbaa !53
  %24 = call noundef i32 @_ZNK6icu_779BytesTrie8getValueEv(ptr noundef nonnull align 8 dereferenceable(28) %23)
  store i32 %24, ptr %5, align 4
  store i32 1, ptr %10, align 4
  br label %25

25:                                               ; preds = %22, %20
  call void @llvm.lifetime.end.p0(i64 4, ptr %9) #14
  %26 = load i32, ptr %5, align 4
  ret i32 %26
}