; Function Attrs: mustprogress uwtable
define internal fastcc noundef i32 @_ZN6icu_7712_GLOBAL__N_120getUnitCategoryIndexERNS_9BytesTrieENS_11StringPieceER10UErrorCode(ptr noundef nonnull align 8 dereferenceable(28) initializes((16, 28)) %0, ptr %1, i32 %2, ptr noundef nonnull writeonly align 4 captures(none) dereferenceable(4) %3) unnamed_addr #1 {
  %5 = getelementptr inbounds nuw i8, ptr %0, i64 8
  %6 = load ptr, ptr %5, align 8, !tbaa !25
  %7 = getelementptr inbounds nuw i8, ptr %0, i64 16
  store ptr %6, ptr %7, align 8, !tbaa !26
  %8 = getelementptr inbounds nuw i8, ptr %0, i64 24
  store i32 -1, ptr %8, align 8, !tbaa !27
  %9 = tail call noundef i32 @_ZN6icu_779BytesTrie4nextEPKci(ptr noundef nonnull align 8 dereferenceable(28) %0, ptr noundef %1, i32 noundef %2)
  %10 = icmp sgt i32 %9, 1
  br i1 %10, label %12, label %11

11:                                               ; preds = %4
  store i32 16, ptr %3, align 4, !tbaa !13
  br label %19

12:                                               ; preds = %4
  %13 = load ptr, ptr %7, align 8, !tbaa !26
  %14 = getelementptr inbounds nuw i8, ptr %13, i64 1
  %15 = load i8, ptr %13, align 1, !tbaa !17
  %16 = lshr i8 %15, 1
  %17 = zext nneg i8 %16 to i32
  %18 = tail call noundef i32 @_ZN6icu_779BytesTrie9readValueEPKhi(ptr noundef nonnull %14, i32 noundef %17)
  br label %19

19:                                               ; preds = %12, %11
  %.0 = phi i32 [ %18, %12 ], [ -1, %11 ]
  ret i32 %.0
}